(dp1
S''
(dp2
S''
F0
sS'Hi'
p3
F1
ssS'his'
p4
(dp5
S'name'
p6
F1
ssS'name'
p7
(dp8
S'is'
p9
F1
ssg9
(dp10
S'bob'
p11
F0.5
sS'bill'
p12
F0.5
ssg12
(dp13
S''
F1
ssg3
(dp14
g4
F0.5
sS'my'
p15
F0.5
ssg11
(dp16
S''
F1
ssg15
(dp17
g7
F1
ss.